target datalayout = "e-m:e-p270:32:32-p271:32:32-p272:64:64-i64:64-i128:128-f80:128-n8:16:32:64-S128"
target triple = "x86_64-pc-linux-gnu"

%"class.arrow::Buffer" = type { ptr, i8, i8, ptr, i64, i64, i8, %"class.std::shared_ptr", %"class.std::shared_ptr.7" }
%"class.std::shared_ptr" = type { %"class.std::__shared_ptr" }
%"class.std::__shared_ptr" = type { ptr, %"class.std::__shared_count" }
%"class.std::__shared_count" = type { ptr }
%"class.std::shared_ptr.7" = type { %"class.std::__shared_ptr.8" }
%"class.std::__shared_ptr.8" = type { ptr, %"class.std::__shared_count" }

; Function Attrs: mustprogress nounwind uwtable
define linkonce_odr noundef i64 @_ZNK5arrow6Buffer7addressEv(ptr noundef nonnull align 8 dereferenceable(80) %0) #0 comdat align 2 {
  %2 = alloca ptr, align 8
  store ptr %0, ptr %2, align 8, !tbaa !53
  %3 = load ptr, ptr %2, align 8
  %4 = getelementptr inbounds nuw %"class.arrow::Buffer", ptr %3, i32 0, i32 3
  %5 = load ptr, ptr %4, align 8, !tbaa !55
  %6 = ptrtoint ptr %5 to i64
  ret i64 %6
}

; Function Attrs: mustprogress uwtable
define noundef zeroext i1 @_ZN5arrow4util14CheckAlignmentERKNS_6BufferEl(ptr noundef nonnull align 8 dereferenceable(80) %0, i64 noundef %1) #1 {
  %3 = alloca i1, align 1
  %4 = alloca ptr, align 8
  %5 = alloca i64, align 8
  store ptr %0, ptr %4, align 8, !tbaa !53
  store i64 %1, ptr %5, align 8, !tbaa !43
  %6 = load i64, ptr %5, align 8, !tbaa !43
  %7 = icmp sle i64 %6, 0
  br i1 %7, label %8, label %9

8:                                                ; preds = %2
  store i1 true, ptr %3, align 1
  br label %15

9:                                                ; preds = %2
  %10 = load ptr, ptr %4, align 8, !tbaa !53
  %11 = call noundef i64 @_ZNK5arrow6Buffer7addressEv(ptr noundef nonnull align 8 dereferenceable(80) %10)
  %12 = load i64, ptr %5, align 8, !tbaa !43
  %13 = urem i64 %11, %12
  %14 = icmp eq i64 %13, 0
  store i1 %14, ptr %3, align 1
  br label %15

15:                                               ; preds = %9, %8
  %16 = load i1, ptr %3, align 1
  ret i1 %16
}