; Function Attrs: mustprogress nofree norecurse nosync nounwind willreturn memory(argmem: read) uwtable
define noundef zeroext i1 @_ZN5arrow4util14CheckAlignmentERKNS_6BufferEl(ptr noundef nonnull readonly align 8 captures(none) dereferenceable(80) %0, i64 noundef %1) local_unnamed_addr #1 {
  %3 = icmp slt i64 %1, 1
  br i1 %3, label %10, label %4

4:                                                ; preds = %2
  %5 = getelementptr inbounds nuw i8, ptr %0, i64 16
  %6 = load ptr, ptr %5, align 8, !tbaa !32
  %7 = ptrtoint ptr %6 to i64
  %8 = urem i64 %7, %1
  %9 = icmp eq i64 %8, 0
  br label %10

10:                                               ; preds = %2, %4
  %.0 = phi i1 [ %9, %4 ], [ true, %2 ]
  ret i1 %.0
}